; Function Attrs: nounwind uwtable
define zeroext i1 @duckdb_je_ehooks_default_dalloc_impl(ptr noundef %0, i64 noundef %1) local_unnamed_addr #1 {
  %3 = tail call zeroext i1 @duckdb_je_extent_in_dss(ptr noundef %0) #6
  br i1 %3, label %6, label %4

4:                                                ; preds = %2
  %5 = tail call zeroext i1 @duckdb_je_extent_dalloc_mmap(ptr noundef %0, i64 noundef %1) #6
  br label %6

6:                                                ; preds = %2, %4
  %.0 = phi i1 [ %5, %4 ], [ true, %2 ]
  ret i1 %.0
}